; Function Attrs: nounwind uwtable
define ptr @l_Lean_Elab_Tactic_Conv_congr(ptr noundef %0, i8 noundef zeroext %1, i8 noundef zeroext %2, ptr noundef %3, ptr noundef %4, ptr noundef %5, ptr noundef %6, ptr noundef %7) local_unnamed_addr #1 {
  %9 = ptrtoint ptr %0 to i64
  %10 = and i64 %9, 1
  %.not = icmp eq i64 %10, 0
  br i1 %.not, label %11, label %lean_inc.exit

11:                                               ; preds = %8
  %.val.i = load i32, ptr %0, align 4, !tbaa !6
  %12 = icmp sgt i32 %.val.i, 0
  br i1 %12, label %13, label %15, !prof !5

13:                                               ; preds = %11
  %14 = add nuw i32 %.val.i, 1
  store i32 %14, ptr %0, align 4, !tbaa !6
  br label %lean_inc.exit

15:                                               ; preds = %11
  %.not.i = icmp eq i32 %.val.i, 0
  br i1 %.not.i, label %lean_inc.exit, label %16

16:                                               ; preds = %15
  tail call void @lean_inc_ref_cold(ptr noundef nonnull %0) #4
  br label %lean_inc.exit

lean_inc.exit:                                    ; preds = %16, %15, %13, %8
  tail call void @lean_inc_heartbeat() #4
  %17 = tail call noalias ptr @mi_malloc_small(i64 noundef 48) #4
  %18 = icmp eq ptr %17, null
  br i1 %18, label %19, label %lean_alloc_closure.exit

19:                                               ; preds = %lean_inc.exit
  tail call void @lean_internal_panic_out_of_memory() #5
  unreachable

lean_alloc_closure.exit:                          ; preds = %lean_inc.exit
  %20 = zext i8 %2 to i64
  %21 = shl nuw nsw i64 %20, 1
  %22 = or disjoint i64 %21, 1
  %23 = inttoptr i64 %22 to ptr
  %24 = zext i8 %1 to i64
  %25 = shl nuw nsw i64 %24, 1
  %26 = or disjoint i64 %25, 1
  %27 = inttoptr i64 %26 to ptr
  %28 = getelementptr inbounds nuw i8, ptr %17, i64 4
  store i32 1, ptr %17, align 4, !tbaa !6
  store i32 -184549328, ptr %28, align 4
  %29 = getelementptr inbounds nuw i8, ptr %17, i64 8
  store ptr @l_Lean_Elab_Tactic_Conv_congr___lambda__1___boxed, ptr %29, align 8, !tbaa !11
  %30 = getelementptr inbounds nuw i8, ptr %17, i64 16
  store i16 8, ptr %30, align 8, !tbaa !15
  %31 = getelementptr inbounds nuw i8, ptr %17, i64 18
  store i16 3, ptr %31, align 2, !tbaa !15
  %32 = getelementptr inbounds nuw i8, ptr %17, i64 24
  store ptr %0, ptr %32, align 8, !tbaa !11
  %33 = getelementptr inbounds nuw i8, ptr %17, i64 32
  store ptr %27, ptr %33, align 8, !tbaa !11
  %34 = getelementptr inbounds nuw i8, ptr %17, i64 40
  store ptr %23, ptr %34, align 8, !tbaa !11
  %35 = tail call ptr @l_Lean_MVarId_withContext___at___private_Lean_Meta_SynthInstance_0__Lean_Meta_synthPendingImp___spec__2___rarg(ptr noundef %0, ptr noundef nonnull %17, ptr noundef %3, ptr noundef %4, ptr noundef %5, ptr noundef %6, ptr noundef %7) #4
  ret ptr %35
}